target datalayout = "e-m:e-p270:32:32-p271:32:32-p272:64:64-i64:64-i128:128-f80:128-n8:16:32:64-S128"
target triple = "x86_64-pc-linux-gnu"

%struct.key_value_info = type { ptr, i32, i32, i32, ptr }

; Function Attrs: nounwind uwtable
define dso_local void @kvi_from_param(ptr noundef %0) #0 {
  %2 = alloca ptr, align 8
  store ptr %0, ptr %2, align 8, !tbaa !22
  %3 = load ptr, ptr %2, align 8, !tbaa !22
  %4 = getelementptr inbounds nuw %struct.key_value_info, ptr %3, i32 0, i32 0
  store ptr null, ptr %4, align 8, !tbaa !24
  %5 = load ptr, ptr %2, align 8, !tbaa !22
  %6 = getelementptr inbounds nuw %struct.key_value_info, ptr %5, i32 0, i32 1
  store i32 -1, ptr %6, align 8, !tbaa !26
  %7 = load ptr, ptr %2, align 8, !tbaa !22
  %8 = getelementptr inbounds nuw %struct.key_value_info, ptr %7, i32 0, i32 2
  store i32 5, ptr %8, align 4, !tbaa !27
  %9 = load ptr, ptr %2, align 8, !tbaa !22
  %10 = getelementptr inbounds nuw %struct.key_value_info, ptr %9, i32 0, i32 3
  store i32 5, ptr %10, align 8, !tbaa !28
  %11 = load ptr, ptr %2, align 8, !tbaa !22
  %12 = getelementptr inbounds nuw %struct.key_value_info, ptr %11, i32 0, i32 4
  store ptr null, ptr %12, align 8, !tbaa !29
  ret void
}