; Function Attrs: mustprogress nofree norecurse nosync nounwind willreturn memory(argmem: write) uwtable
define dso_local void @kvi_from_param(ptr noundef writeonly captures(none) initializes((0, 20), (24, 32)) %0) local_unnamed_addr #8 {
  store ptr null, ptr %0, align 8, !tbaa !20
  %2 = getelementptr inbounds nuw i8, ptr %0, i64 8
  store i32 -1, ptr %2, align 8, !tbaa !22
  %3 = getelementptr inbounds nuw i8, ptr %0, i64 12
  store i32 5, ptr %3, align 4, !tbaa !23
  %4 = getelementptr inbounds nuw i8, ptr %0, i64 16
  store i32 5, ptr %4, align 8, !tbaa !24
  %5 = getelementptr inbounds nuw i8, ptr %0, i64 24
  store ptr null, ptr %5, align 8, !tbaa !25
  ret void
}